; ModuleID = '39/1503.c'
source_filename = "39/1503.c"
target datalayout = "e-m:e-p270:32:32-p271:32:32-p272:64:64-i64:64-f80:128-n8:16:32:64-S128"
target triple = "x86_64-pc-linux-gnu"

%struct.std = type { [21 x i8], i32, i32, i8, i8, i32 }

@.str = private unnamed_addr constant [3 x i8] c"%d\00", align 1
@.str.1 = private unnamed_addr constant [18 x i8] c"%s %d %d %c %c %d\00", align 1
@.str.2 = private unnamed_addr constant [4 x i8] c"%s\0A\00", align 1
@.str.3 = private unnamed_addr constant [4 x i8] c"%d\0A\00", align 1

; Function Attrs: noinline nounwind uwtable
define dso_local i32 @main() #0 {
  %1 = alloca i32, align 4
  %2 = alloca i32, align 4
  %3 = alloca [100 x %struct.std], align 16
  %4 = alloca i32, align 4
  %5 = alloca [100 x i32], align 16
  %6 = alloca i32, align 4
  %7 = alloca i32, align 4
  %8 = alloca i32, align 4
  store i32 0, i32* %1, align 4
  %9 = call i32 (i8*, ...) @__isoc99_scanf(i8* getelementptr inbounds ([3 x i8], [3 x i8]* @.str, i64 0, i64 0), i32* %2)
  store i32 0, i32* %4, align 4
  br label %10

10:                                               ; preds = %41, %0
  %11 = load i32, i32* %4, align 4
  %12 = load i32, i32* %2, align 4
  %13 = icmp slt i32 %11, %12
  br i1 %13, label %14, label %44

14:                                               ; preds = %10
  %15 = load i32, i32* %4, align 4
  %16 = sext i32 %15 to i64
  %17 = getelementptr inbounds [100 x %struct.std], [100 x %struct.std]* %3, i64 0, i64 %16
  %18 = getelementptr inbounds %struct.std, %struct.std* %17, i32 0, i32 0
  %19 = getelementptr inbounds [21 x i8], [21 x i8]* %18, i64 0, i64 0
  %20 = load i32, i32* %4, align 4
  %21 = sext i32 %20 to i64
  %22 = getelementptr inbounds [100 x %struct.std], [100 x %struct.std]* %3, i64 0, i64 %21
  %23 = getelementptr inbounds %struct.std, %struct.std* %22, i32 0, i32 1
  %24 = load i32, i32* %4, align 4
  %25 = sext i32 %24 to i64
  %26 = getelementptr inbounds [100 x %struct.std], [100 x %struct.std]* %3, i64 0, i64 %25
  %27 = getelementptr inbounds %struct.std, %struct.std* %26, i32 0, i32 2
  %28 = load i32, i32* %4, align 4
  %29 = sext i32 %28 to i64
  %30 = getelementptr inbounds [100 x %struct.std], [100 x %struct.std]* %3, i64 0, i64 %29
  %31 = getelementptr inbounds %struct.std, %struct.std* %30, i32 0, i32 3
  %32 = load i32, i32* %4, align 4
  %33 = sext i32 %32 to i64
  %34 = getelementptr inbounds [100 x %struct.std], [100 x %struct.std]* %3, i64 0, i64 %33
  %35 = getelementptr inbounds %struct.std, %struct.std* %34, i32 0, i32 4
  %36 = load i32, i32* %4, align 4
  %37 = sext i32 %36 to i64
  %38 = getelementptr inbounds [100 x %struct.std], [100 x %struct.std]* %3, i64 0, i64 %37
  %39 = getelementptr inbounds %struct.std, %struct.std* %38, i32 0, i32 5
  %40 = call i32 (i8*, ...) @__isoc99_scanf(i8* getelementptr inbounds ([18 x i8], [18 x i8]* @.str.1, i64 0, i64 0), i8* %19, i32* %23, i32* %27, i8* %31, i8* %35, i32* %39)
  br label %41

41:                                               ; preds = %14
  %42 = load i32, i32* %4, align 4
  %43 = add nsw i32 %42, 1
  store i32 %43, i32* %4, align 4
  br label %10

44:                                               ; preds = %10
  store i32 0, i32* %4, align 4
  br label %45

45:                                               ; preds = %53, %44
  %46 = load i32, i32* %4, align 4
  %47 = load i32, i32* %2, align 4
  %48 = icmp slt i32 %46, %47
  br i1 %48, label %49, label %56

49:                                               ; preds = %45
  %50 = load i32, i32* %4, align 4
  %51 = sext i32 %50 to i64
  %52 = getelementptr inbounds [100 x i32], [100 x i32]* %5, i64 0, i64 %51
  store i32 0, i32* %52, align 4
  br label %53

53:                                               ; preds = %49
  %54 = load i32, i32* %4, align 4
  %55 = add nsw i32 %54, 1
  store i32 %55, i32* %4, align 4
  br label %45

56:                                               ; preds = %45
  store i32 0, i32* %4, align 4
  br label %57

57:                                               ; preds = %157, %56
  %58 = load i32, i32* %4, align 4
  %59 = load i32, i32* %2, align 4
  %60 = icmp slt i32 %58, %59
  br i1 %60, label %61, label %160

61:                                               ; preds = %57
  %62 = load i32, i32* %4, align 4
  %63 = sext i32 %62 to i64
  %64 = getelementptr inbounds [100 x %struct.std], [100 x %struct.std]* %3, i64 0, i64 %63
  %65 = getelementptr inbounds %struct.std, %struct.std* %64, i32 0, i32 1
  %66 = load i32, i32* %65, align 8
  %67 = icmp sgt i32 %66, 80
  br i1 %67, label %68, label %81

68:                                               ; preds = %61
  %69 = load i32, i32* %4, align 4
  %70 = sext i32 %69 to i64
  %71 = getelementptr inbounds [100 x %struct.std], [100 x %struct.std]* %3, i64 0, i64 %70
  %72 = getelementptr inbounds %struct.std, %struct.std* %71, i32 0, i32 5
  %73 = load i32, i32* %72, align 4
  %74 = icmp sgt i32 %73, 0
  br i1 %74, label %75, label %81

75:                                               ; preds = %68
  %76 = load i32, i32* %4, align 4
  %77 = sext i32 %76 to i64
  %78 = getelementptr inbounds [100 x i32], [100 x i32]* %5, i64 0, i64 %77
  %79 = load i32, i32* %78, align 4
  %80 = add nsw i32 %79, 8000
  store i32 %80, i32* %78, align 4
  br label %81

81:                                               ; preds = %75, %68, %61
  %82 = load i32, i32* %4, align 4
  %83 = sext i32 %82 to i64
  %84 = getelementptr inbounds [100 x %struct.std], [100 x %struct.std]* %3, i64 0, i64 %83
  %85 = getelementptr inbounds %struct.std, %struct.std* %84, i32 0, i32 1
  %86 = load i32, i32* %85, align 8
  %87 = icmp sgt i32 %86, 85
  br i1 %87, label %88, label %101

88:                                               ; preds = %81
  %89 = load i32, i32* %4, align 4
  %90 = sext i32 %89 to i64
  %91 = getelementptr inbounds [100 x %struct.std], [100 x %struct.std]* %3, i64 0, i64 %90
  %92 = getelementptr inbounds %struct.std, %struct.std* %91, i32 0, i32 2
  %93 = load i32, i32* %92, align 4
  %94 = icmp sgt i32 %93, 80
  br i1 %94, label %95, label %101

95:                                               ; preds = %88
  %96 = load i32, i32* %4, align 4
  %97 = sext i32 %96 to i64
  %98 = getelementptr inbounds [100 x i32], [100 x i32]* %5, i64 0, i64 %97
  %99 = load i32, i32* %98, align 4
  %100 = add nsw i32 %99, 4000
  store i32 %100, i32* %98, align 4
  br label %101

101:                                              ; preds = %95, %88, %81
  %102 = load i32, i32* %4, align 4
  %103 = sext i32 %102 to i64
  %104 = getelementptr inbounds [100 x %struct.std], [100 x %struct.std]* %3, i64 0, i64 %103
  %105 = getelementptr inbounds %struct.std, %struct.std* %104, i32 0, i32 1
  %106 = load i32, i32* %105, align 8
  %107 = icmp sgt i32 %106, 90
  br i1 %107, label %108, label %114

108:                                              ; preds = %101
  %109 = load i32, i32* %4, align 4
  %110 = sext i32 %109 to i64
  %111 = getelementptr inbounds [100 x i32], [100 x i32]* %5, i64 0, i64 %110
  %112 = load i32, i32* %111, align 4
  %113 = add nsw i32 %112, 2000
  store i32 %113, i32* %111, align 4
  br label %114

114:                                              ; preds = %108, %101
  %115 = load i32, i32* %4, align 4
  %116 = sext i32 %115 to i64
  %117 = getelementptr inbounds [100 x %struct.std], [100 x %struct.std]* %3, i64 0, i64 %116
  %118 = getelementptr inbounds %struct.std, %struct.std* %117, i32 0, i32 1
  %119 = load i32, i32* %118, align 8
  %120 = icmp sgt i32 %119, 85
  br i1 %120, label %121, label %135

121:                                              ; preds = %114
  %122 = load i32, i32* %4, align 4
  %123 = sext i32 %122 to i64
  %124 = getelementptr inbounds [100 x %struct.std], [100 x %struct.std]* %3, i64 0, i64 %123
  %125 = getelementptr inbounds %struct.std, %struct.std* %124, i32 0, i32 4
  %126 = load i8, i8* %125, align 1
  %127 = sext i8 %126 to i32
  %128 = icmp eq i32 %127, 89
  br i1 %128, label %129, label %135

129:                                              ; preds = %121
  %130 = load i32, i32* %4, align 4
  %131 = sext i32 %130 to i64
  %132 = getelementptr inbounds [100 x i32], [100 x i32]* %5, i64 0, i64 %131
  %133 = load i32, i32* %132, align 4
  %134 = add nsw i32 %133, 1000
  store i32 %134, i32* %132, align 4
  br label %135

135:                                              ; preds = %129, %121, %114
  %136 = load i32, i32* %4, align 4
  %137 = sext i32 %136 to i64
  %138 = getelementptr inbounds [100 x %struct.std], [100 x %struct.std]* %3, i64 0, i64 %137
  %139 = getelementptr inbounds %struct.std, %struct.std* %138, i32 0, i32 2
  %140 = load i32, i32* %139, align 4
  %141 = icmp sgt i32 %140, 80
  br i1 %141, label %142, label %156

142:                                              ; preds = %135
  %143 = load i32, i32* %4, align 4
  %144 = sext i32 %143 to i64
  %145 = getelementptr inbounds [100 x %struct.std], [100 x %struct.std]* %3, i64 0, i64 %144
  %146 = getelementptr inbounds %struct.std, %struct.std* %145, i32 0, i32 3
  %147 = load i8, i8* %146, align 8
  %148 = sext i8 %147 to i32
  %149 = icmp eq i32 %148, 89
  br i1 %149, label %150, label %156

150:                                              ; preds = %142
  %151 = load i32, i32* %4, align 4
  %152 = sext i32 %151 to i64
  %153 = getelementptr inbounds [100 x i32], [100 x i32]* %5, i64 0, i64 %152
  %154 = load i32, i32* %153, align 4
  %155 = add nsw i32 %154, 850
  store i32 %155, i32* %153, align 4
  br label %156

156:                                              ; preds = %150, %142, %135
  br label %157

157:                                              ; preds = %156
  %158 = load i32, i32* %4, align 4
  %159 = add nsw i32 %158, 1
  store i32 %159, i32* %4, align 4
  br label %57

160:                                              ; preds = %57
  %161 = getelementptr inbounds [100 x i32], [100 x i32]* %5, i64 0, i64 0
  %162 = load i32, i32* %161, align 16
  store i32 %162, i32* %6, align 4
  store i32 0, i32* %7, align 4
  %163 = getelementptr inbounds [100 x i32], [100 x i32]* %5, i64 0, i64 0
  %164 = load i32, i32* %163, align 16
  store i32 %164, i32* %8, align 4
  store i32 1, i32* %4, align 4
  br label %165

165:                                              ; preds = %189, %160
  %166 = load i32, i32* %4, align 4
  %167 = load i32, i32* %2, align 4
  %168 = icmp slt i32 %166, %167
  br i1 %168, label %169, label %192

169:                                              ; preds = %165
  %170 = load i32, i32* %4, align 4
  %171 = sext i32 %170 to i64
  %172 = getelementptr inbounds [100 x i32], [100 x i32]* %5, i64 0, i64 %171
  %173 = load i32, i32* %172, align 4
  %174 = load i32, i32* %8, align 4
  %175 = add nsw i32 %174, %173
  store i32 %175, i32* %8, align 4
  %176 = load i32, i32* %6, align 4
  %177 = load i32, i32* %4, align 4
  %178 = sext i32 %177 to i64
  %179 = getelementptr inbounds [100 x i32], [100 x i32]* %5, i64 0, i64 %178
  %180 = load i32, i32* %179, align 4
  %181 = icmp slt i32 %176, %180
  br i1 %181, label %182, label %188

182:                                              ; preds = %169
  %183 = load i32, i32* %4, align 4
  %184 = sext i32 %183 to i64
  %185 = getelementptr inbounds [100 x i32], [100 x i32]* %5, i64 0, i64 %184
  %186 = load i32, i32* %185, align 4
  store i32 %186, i32* %6, align 4
  %187 = load i32, i32* %4, align 4
  store i32 %187, i32* %7, align 4
  br label %188

188:                                              ; preds = %182, %169
  br label %189

189:                                              ; preds = %188
  %190 = load i32, i32* %4, align 4
  %191 = add nsw i32 %190, 1
  store i32 %191, i32* %4, align 4
  br label %165

192:                                              ; preds = %165
  %193 = load i32, i32* %7, align 4
  %194 = sext i32 %193 to i64
  %195 = getelementptr inbounds [100 x %struct.std], [100 x %struct.std]* %3, i64 0, i64 %194
  %196 = getelementptr inbounds %struct.std, %struct.std* %195, i32 0, i32 0
  %197 = getelementptr inbounds [21 x i8], [21 x i8]* %196, i64 0, i64 0
  %198 = call i32 (i8*, ...) @printf(i8* getelementptr inbounds ([4 x i8], [4 x i8]* @.str.2, i64 0, i64 0), i8* %197)
  %199 = load i32, i32* %6, align 4
  %200 = call i32 (i8*, ...) @printf(i8* getelementptr inbounds ([4 x i8], [4 x i8]* @.str.3, i64 0, i64 0), i32 %199)
  %201 = load i32, i32* %8, align 4
  %202 = call i32 (i8*, ...) @printf(i8* getelementptr inbounds ([4 x i8], [4 x i8]* @.str.3, i64 0, i64 0), i32 %201)
  ret i32 0
}

declare dso_local i32 @__isoc99_scanf(i8*, ...) #1

declare dso_local i32 @printf(i8*, ...) #1


!llvm.module.flags = !{!0}
!llvm.ident = !{!1}

!0 = !{i32 1, !"wchar_size", i32 4}
!1 = !{!"clang version 10.0.0-4ubuntu1 "}
