; ModuleID = 'source-C-CXX/38/1503.c'
source_filename = "source-C-CXX/38/1503.c"
target datalayout = "e-m:e-p270:32:32-p271:32:32-p272:64:64-i64:64-f80:128-n8:16:32:64-S128"
target triple = "x86_64-pc-linux-gnu"

%struct.std = type { [21 x i8], i32, i32, i8, i8, i32 }

@.str = private unnamed_addr constant [3 x i8] c"%d\00", align 1
@.str.1 = private unnamed_addr constant [18 x i8] c"%s %d %d %c %c %d\00", align 1
@.str.3 = private unnamed_addr constant [4 x i8] c"%d\0A\00", align 1

; Function Attrs: nofree nounwind sspstrong uwtable
define dso_local i32 @main() local_unnamed_addr #0 {
  %1 = alloca i32, align 4
  %2 = alloca [100 x %struct.std], align 16
  %3 = alloca [100 x i32], align 16
  %4 = bitcast [100 x i32]* %3 to i8*
  %5 = bitcast i32* %1 to i8*
  call void @llvm.lifetime.start.p0i8(i64 4, i8* nonnull %5) #5
  %6 = call i32 (i8*, ...) @__isoc99_scanf(i8* getelementptr inbounds ([3 x i8], [3 x i8]* @.str, i64 0, i64 0), i32* nonnull %1)
  %7 = getelementptr inbounds [100 x %struct.std], [100 x %struct.std]* %2, i64 0, i64 0, i32 0, i64 0
  call void @llvm.lifetime.start.p0i8(i64 4000, i8* nonnull %7) #5
  %8 = load i32, i32* %1, align 4, !tbaa !5
  %9 = icmp sgt i32 %8, 0
  br i1 %9, label %10, label %25

10:                                               ; preds = %0, %10
  %11 = phi i64 [ %19, %10 ], [ 0, %0 ]
  %12 = getelementptr inbounds [100 x %struct.std], [100 x %struct.std]* %2, i64 0, i64 %11, i32 0, i64 0
  %13 = getelementptr inbounds [100 x %struct.std], [100 x %struct.std]* %2, i64 0, i64 %11, i32 1
  %14 = getelementptr inbounds [100 x %struct.std], [100 x %struct.std]* %2, i64 0, i64 %11, i32 2
  %15 = getelementptr inbounds [100 x %struct.std], [100 x %struct.std]* %2, i64 0, i64 %11, i32 3
  %16 = getelementptr inbounds [100 x %struct.std], [100 x %struct.std]* %2, i64 0, i64 %11, i32 4
  %17 = getelementptr inbounds [100 x %struct.std], [100 x %struct.std]* %2, i64 0, i64 %11, i32 5
  %18 = call i32 (i8*, ...) @__isoc99_scanf(i8* getelementptr inbounds ([18 x i8], [18 x i8]* @.str.1, i64 0, i64 0), i8* nonnull %12, i32* nonnull %13, i32* nonnull %14, i8* nonnull %15, i8* nonnull %16, i32* nonnull %17)
  %19 = add nuw nsw i64 %11, 1
  %20 = load i32, i32* %1, align 4, !tbaa !5
  %21 = sext i32 %20 to i64
  %22 = icmp slt i64 %19, %21
  br i1 %22, label %10, label %23, !llvm.loop !9

23:                                               ; preds = %10
  call void @llvm.lifetime.start.p0i8(i64 400, i8* nonnull %4) #5
  %24 = icmp sgt i32 %20, 0
  br i1 %24, label %26, label %82

25:                                               ; preds = %0
  call void @llvm.lifetime.start.p0i8(i64 400, i8* nonnull %4) #5
  br label %82

26:                                               ; preds = %23
  %27 = zext i32 %20 to i64
  %28 = shl nuw nsw i64 %27, 2
  call void @llvm.memset.p0i8.i64(i8* nonnull align 16 %4, i8 0, i64 %28, i1 false)
  %29 = zext i32 %20 to i64
  br label %30

30:                                               ; preds = %26, %79
  %31 = phi i64 [ 0, %26 ], [ %80, %79 ]
  %32 = getelementptr inbounds [100 x %struct.std], [100 x %struct.std]* %2, i64 0, i64 %31, i32 1
  %33 = load i32, i32* %32, align 8, !tbaa !11
  %34 = icmp sgt i32 %33, 80
  br i1 %34, label %35, label %67

35:                                               ; preds = %30
  %36 = getelementptr inbounds [100 x %struct.std], [100 x %struct.std]* %2, i64 0, i64 %31, i32 5
  %37 = load i32, i32* %36, align 4, !tbaa !13
  %38 = icmp sgt i32 %37, 0
  br i1 %38, label %39, label %43

39:                                               ; preds = %35
  %40 = getelementptr inbounds [100 x i32], [100 x i32]* %3, i64 0, i64 %31
  %41 = load i32, i32* %40, align 4, !tbaa !5
  %42 = add nsw i32 %41, 8000
  store i32 %42, i32* %40, align 4, !tbaa !5
  br label %43

43:                                               ; preds = %39, %35
  %44 = icmp sgt i32 %33, 85
  br i1 %44, label %45, label %67

45:                                               ; preds = %43
  %46 = getelementptr inbounds [100 x %struct.std], [100 x %struct.std]* %2, i64 0, i64 %31, i32 2
  %47 = load i32, i32* %46, align 4, !tbaa !14
  %48 = icmp sgt i32 %47, 80
  br i1 %48, label %49, label %53

49:                                               ; preds = %45
  %50 = getelementptr inbounds [100 x i32], [100 x i32]* %3, i64 0, i64 %31
  %51 = load i32, i32* %50, align 4, !tbaa !5
  %52 = add nsw i32 %51, 4000
  store i32 %52, i32* %50, align 4, !tbaa !5
  br label %53

53:                                               ; preds = %49, %45
  %54 = icmp sgt i32 %33, 90
  br i1 %54, label %55, label %59

55:                                               ; preds = %53
  %56 = getelementptr inbounds [100 x i32], [100 x i32]* %3, i64 0, i64 %31
  %57 = load i32, i32* %56, align 4, !tbaa !5
  %58 = add nsw i32 %57, 2000
  store i32 %58, i32* %56, align 4, !tbaa !5
  br label %59

59:                                               ; preds = %55, %53
  %60 = getelementptr inbounds [100 x %struct.std], [100 x %struct.std]* %2, i64 0, i64 %31, i32 4
  %61 = load i8, i8* %60, align 1, !tbaa !15
  %62 = icmp eq i8 %61, 89
  br i1 %62, label %63, label %67

63:                                               ; preds = %59
  %64 = getelementptr inbounds [100 x i32], [100 x i32]* %3, i64 0, i64 %31
  %65 = load i32, i32* %64, align 4, !tbaa !5
  %66 = add nsw i32 %65, 1000
  store i32 %66, i32* %64, align 4, !tbaa !5
  br label %67

67:                                               ; preds = %43, %30, %63, %59
  %68 = getelementptr inbounds [100 x %struct.std], [100 x %struct.std]* %2, i64 0, i64 %31, i32 2
  %69 = load i32, i32* %68, align 4, !tbaa !14
  %70 = icmp sgt i32 %69, 80
  br i1 %70, label %71, label %79

71:                                               ; preds = %67
  %72 = getelementptr inbounds [100 x %struct.std], [100 x %struct.std]* %2, i64 0, i64 %31, i32 3
  %73 = load i8, i8* %72, align 8, !tbaa !16
  %74 = icmp eq i8 %73, 89
  br i1 %74, label %75, label %79

75:                                               ; preds = %71
  %76 = getelementptr inbounds [100 x i32], [100 x i32]* %3, i64 0, i64 %31
  %77 = load i32, i32* %76, align 4, !tbaa !5
  %78 = add nsw i32 %77, 850
  store i32 %78, i32* %76, align 4, !tbaa !5
  br label %79

79:                                               ; preds = %67, %71, %75
  %80 = add nuw nsw i64 %31, 1
  %81 = icmp eq i64 %80, %29
  br i1 %81, label %85, label %30, !llvm.loop !17

82:                                               ; preds = %25, %23
  %83 = getelementptr inbounds [100 x i32], [100 x i32]* %3, i64 0, i64 0
  %84 = load i32, i32* %83, align 16, !tbaa !5
  br label %166

85:                                               ; preds = %79
  %86 = getelementptr inbounds [100 x i32], [100 x i32]* %3, i64 0, i64 0
  %87 = load i32, i32* %86, align 16, !tbaa !5
  %88 = icmp sgt i32 %20, 1
  br i1 %88, label %89, label %166

89:                                               ; preds = %85
  %90 = add nsw i64 %29, -1
  %91 = add nsw i64 %29, -2
  %92 = and i64 %90, 3
  %93 = icmp ult i64 %91, 3
  br i1 %93, label %136, label %94

94:                                               ; preds = %89
  %95 = and i64 %90, -4
  br label %96

96:                                               ; preds = %96, %94
  %97 = phi i64 [ 1, %94 ], [ %133, %96 ]
  %98 = phi i32 [ %87, %94 ], [ %128, %96 ]
  %99 = phi i32 [ 0, %94 ], [ %132, %96 ]
  %100 = phi i32 [ %87, %94 ], [ %130, %96 ]
  %101 = phi i64 [ %95, %94 ], [ %134, %96 ]
  %102 = getelementptr inbounds [100 x i32], [100 x i32]* %3, i64 0, i64 %97
  %103 = load i32, i32* %102, align 4, !tbaa !5
  %104 = add nsw i32 %103, %98
  %105 = icmp slt i32 %100, %103
  %106 = select i1 %105, i32 %103, i32 %100
  %107 = trunc i64 %97 to i32
  %108 = select i1 %105, i32 %107, i32 %99
  %109 = add nuw nsw i64 %97, 1
  %110 = getelementptr inbounds [100 x i32], [100 x i32]* %3, i64 0, i64 %109
  %111 = load i32, i32* %110, align 4, !tbaa !5
  %112 = add nsw i32 %111, %104
  %113 = icmp slt i32 %106, %111
  %114 = select i1 %113, i32 %111, i32 %106
  %115 = trunc i64 %109 to i32
  %116 = select i1 %113, i32 %115, i32 %108
  %117 = add nuw nsw i64 %97, 2
  %118 = getelementptr inbounds [100 x i32], [100 x i32]* %3, i64 0, i64 %117
  %119 = load i32, i32* %118, align 4, !tbaa !5
  %120 = add nsw i32 %119, %112
  %121 = icmp slt i32 %114, %119
  %122 = select i1 %121, i32 %119, i32 %114
  %123 = trunc i64 %117 to i32
  %124 = select i1 %121, i32 %123, i32 %116
  %125 = add nuw nsw i64 %97, 3
  %126 = getelementptr inbounds [100 x i32], [100 x i32]* %3, i64 0, i64 %125
  %127 = load i32, i32* %126, align 4, !tbaa !5
  %128 = add nsw i32 %127, %120
  %129 = icmp slt i32 %122, %127
  %130 = select i1 %129, i32 %127, i32 %122
  %131 = trunc i64 %125 to i32
  %132 = select i1 %129, i32 %131, i32 %124
  %133 = add nuw nsw i64 %97, 4
  %134 = add i64 %101, -4
  %135 = icmp eq i64 %134, 0
  br i1 %135, label %136, label %96, !llvm.loop !18

136:                                              ; preds = %96, %89
  %137 = phi i32 [ undef, %89 ], [ %128, %96 ]
  %138 = phi i32 [ undef, %89 ], [ %130, %96 ]
  %139 = phi i32 [ undef, %89 ], [ %132, %96 ]
  %140 = phi i64 [ 1, %89 ], [ %133, %96 ]
  %141 = phi i32 [ %87, %89 ], [ %128, %96 ]
  %142 = phi i32 [ 0, %89 ], [ %132, %96 ]
  %143 = phi i32 [ %87, %89 ], [ %130, %96 ]
  %144 = icmp eq i64 %92, 0
  br i1 %144, label %161, label %145

145:                                              ; preds = %136, %145
  %146 = phi i64 [ %158, %145 ], [ %140, %136 ]
  %147 = phi i32 [ %153, %145 ], [ %141, %136 ]
  %148 = phi i32 [ %157, %145 ], [ %142, %136 ]
  %149 = phi i32 [ %155, %145 ], [ %143, %136 ]
  %150 = phi i64 [ %159, %145 ], [ %92, %136 ]
  %151 = getelementptr inbounds [100 x i32], [100 x i32]* %3, i64 0, i64 %146
  %152 = load i32, i32* %151, align 4, !tbaa !5
  %153 = add nsw i32 %152, %147
  %154 = icmp slt i32 %149, %152
  %155 = select i1 %154, i32 %152, i32 %149
  %156 = trunc i64 %146 to i32
  %157 = select i1 %154, i32 %156, i32 %148
  %158 = add nuw nsw i64 %146, 1
  %159 = add i64 %150, -1
  %160 = icmp eq i64 %159, 0
  br i1 %160, label %161, label %145, !llvm.loop !19

161:                                              ; preds = %145, %136
  %162 = phi i32 [ %137, %136 ], [ %153, %145 ]
  %163 = phi i32 [ %138, %136 ], [ %155, %145 ]
  %164 = phi i32 [ %139, %136 ], [ %157, %145 ]
  %165 = sext i32 %164 to i64
  br label %166

166:                                              ; preds = %82, %161, %85
  %167 = phi i32 [ %87, %85 ], [ %163, %161 ], [ %84, %82 ]
  %168 = phi i64 [ 0, %85 ], [ %165, %161 ], [ 0, %82 ]
  %169 = phi i32 [ %87, %85 ], [ %162, %161 ], [ %84, %82 ]
  %170 = getelementptr inbounds [100 x %struct.std], [100 x %struct.std]* %2, i64 0, i64 %168, i32 0, i64 0
  %171 = call i32 @puts(i8* nonnull %170)
  %172 = call i32 (i8*, ...) @printf(i8* nonnull dereferenceable(1) getelementptr inbounds ([4 x i8], [4 x i8]* @.str.3, i64 0, i64 0), i32 %167)
  %173 = call i32 (i8*, ...) @printf(i8* nonnull dereferenceable(1) getelementptr inbounds ([4 x i8], [4 x i8]* @.str.3, i64 0, i64 0), i32 %169)
  call void @llvm.lifetime.end.p0i8(i64 400, i8* nonnull %4) #5
  call void @llvm.lifetime.end.p0i8(i64 4000, i8* nonnull %7) #5
  call void @llvm.lifetime.end.p0i8(i64 4, i8* nonnull %5) #5
  ret i32 0
}

; Function Attrs: argmemonly mustprogress nofree nosync nounwind willreturn
declare void @llvm.lifetime.start.p0i8(i64 immarg, i8* nocapture) #1

; Function Attrs: nofree nounwind
declare noundef i32 @__isoc99_scanf(i8* nocapture noundef readonly, ...) local_unnamed_addr #2

; Function Attrs: nofree nounwind
declare noundef i32 @printf(i8* nocapture noundef readonly, ...) local_unnamed_addr #2

; Function Attrs: argmemonly mustprogress nofree nosync nounwind willreturn
declare void @llvm.lifetime.end.p0i8(i64 immarg, i8* nocapture) #1

; Function Attrs: nofree nounwind
declare noundef i32 @puts(i8* nocapture noundef readonly) local_unnamed_addr #3

; Function Attrs: argmemonly nofree nounwind willreturn writeonly
declare void @llvm.memset.p0i8.i64(i8* nocapture writeonly, i8, i64, i1 immarg) #4


!llvm.module.flags = !{!0, !1, !2, !3}
!llvm.ident = !{!4}

!0 = !{i32 1, !"wchar_size", i32 4}
!1 = !{i32 7, !"PIC Level", i32 2}
!2 = !{i32 7, !"PIE Level", i32 2}
!3 = !{i32 7, !"uwtable", i32 1}
!4 = !{!"clang version 13.0.0"}
!5 = !{!6, !6, i64 0}
!6 = !{!"int", !7, i64 0}
!7 = !{!"omnipotent char", !8, i64 0}
!8 = !{!"Simple C/C++ TBAA"}
!9 = distinct !{!9, !10}
!10 = !{!"llvm.loop.mustprogress"}
!11 = !{!12, !6, i64 24}
!12 = !{!"std", !7, i64 0, !6, i64 24, !6, i64 28, !7, i64 32, !7, i64 33, !6, i64 36}
!13 = !{!12, !6, i64 36}
!14 = !{!12, !6, i64 28}
!15 = !{!12, !7, i64 33}
!16 = !{!12, !7, i64 32}
!17 = distinct !{!17, !10}
!18 = distinct !{!18, !10}
!19 = distinct !{!19, !20}
!20 = !{!"llvm.loop.unroll.disable"}
